target datalayout = "e-m:e-p270:32:32-p271:32:32-p272:64:64-i64:64-i128:128-f80:128-n8:16:32:64-S128"
target triple = "x86_64-pc-linux-gnu"

%struct._packet_info = type { ptr, ptr, i32, i32, %struct.nstime_t, %struct.nstime_t, %struct.nstime_t, i8, ptr, ptr, ptr, ptr, %struct._address, %struct._address, %struct._address, %struct._address, %struct._address, %struct._address, i32, ptr, i8, [3 x i8], %struct.anon, i32, i32, i32, i32, ptr, i8, ptr, ptr, i16, i16, i32, i32, i16, i32, i32, ptr, ptr, ptr, i8, i8, i16, i16, i16, i32, i16, i16, ptr, ptr, ptr, ptr, ptr, i32, i32 }
%struct.nstime_t = type { i64, i32 }
%struct._address = type { i32, i32, ptr, ptr }
%struct.anon = type { i8, [3 x i8] }

@hf_wisun_sec_function = internal global i32 0, align 4
@hf_wisun_sec_error_type = internal global i32 0, align 4
@hf_wisun_sec_error_nonce = internal global i32 0, align 4
@ett_wisun_sec = internal global i32 0, align 4
@.str.379 = private unnamed_addr constant [7 x i8] c"Wi-SUN\00", align 1
@proto_wisun_sec = internal global i32 0, align 4
@wisun_sec_functions = internal constant [2 x { i32, [4 x i8], ptr }] [{ i32, [4 x i8], ptr } { i32 1, [4 x i8] zeroinitializer, ptr @.str.515 }, { i32, [4 x i8], ptr } zeroinitializer], align 16
@.str.526 = private unnamed_addr constant [17 x i8] c"Unknown Function\00", align 1
@.str.527 = private unnamed_addr constant [10 x i8] c"Wi-SUN %s\00", align 1
@.str.528 = private unnamed_addr constant [14 x i8] c"Unknown Error\00", align 1
@.str.529 = private unnamed_addr constant [5 x i8] c": %s\00", align 1

; Function Attrs: null_pointer_is_valid sspstrong uwtable
define internal i32 @dissect_wisun_sec(ptr noundef %0, ptr noundef %1, ptr noundef %2, ptr noundef %3) #0 {
  %5 = alloca i32, align 4
  %6 = alloca ptr, align 8
  %7 = alloca ptr, align 8
  %8 = alloca ptr, align 8
  %9 = alloca ptr, align 8
  %10 = alloca ptr, align 8
  %11 = alloca ptr, align 8
  %12 = alloca i8, align 1
  %13 = alloca ptr, align 8
  %14 = alloca ptr, align 8
  %15 = alloca i32, align 4
  store ptr %0, ptr %6, align 8
  store ptr %1, ptr %7, align 8
  store ptr %2, ptr %8, align 8
  store ptr %3, ptr %9, align 8
  call void @llvm.lifetime.start.p0(i64 8, ptr %10) #7
  call void @llvm.lifetime.start.p0(i64 8, ptr %11) #7
  call void @llvm.lifetime.start.p0(i64 1, ptr %12) #7
  %16 = load ptr, ptr %6, align 8
  %17 = call zeroext i8 @tvb_get_uint8(ptr noundef %16, i32 noundef 0)
  store i8 %17, ptr %12, align 1
  call void @llvm.lifetime.start.p0(i64 8, ptr %13) #7
  %18 = load i8, ptr %12, align 1
  %19 = zext i8 %18 to i32
  %20 = call ptr @val_to_str_const(i32 noundef %19, ptr noundef @wisun_sec_functions, ptr noundef @.str.526)
  store ptr %20, ptr %13, align 8
  %21 = load ptr, ptr %8, align 8
  %22 = load i32, ptr @proto_wisun_sec, align 4
  %23 = load ptr, ptr %6, align 8
  %24 = load ptr, ptr %13, align 8
  %25 = call ptr (ptr, i32, ptr, i32, i32, ptr, ...) @proto_tree_add_protocol_format(ptr noundef %21, i32 noundef %22, ptr noundef %23, i32 noundef 0, i32 noundef -1, ptr noundef @.str.527, ptr noundef %24)
  store ptr %25, ptr %10, align 8
  %26 = load ptr, ptr %10, align 8
  %27 = load i32, ptr @ett_wisun_sec, align 4
  %28 = call ptr @proto_item_add_subtree(ptr noundef %26, i32 noundef %27)
  store ptr %28, ptr %11, align 8
  %29 = load ptr, ptr %7, align 8
  %30 = getelementptr inbounds nuw %struct._packet_info, ptr %29, i32 0, i32 1
  %31 = load ptr, ptr %30, align 8
  call void @col_set_str(ptr noundef %31, i32 noundef 35, ptr noundef @.str.379)
  %32 = load ptr, ptr %7, align 8
  %33 = getelementptr inbounds nuw %struct._packet_info, ptr %32, i32 0, i32 1
  %34 = load ptr, ptr %33, align 8
  %35 = load ptr, ptr %13, align 8
  call void @col_set_str(ptr noundef %34, i32 noundef 25, ptr noundef %35)
  %36 = load ptr, ptr %11, align 8
  %37 = load i32, ptr @hf_wisun_sec_function, align 4
  %38 = load ptr, ptr %6, align 8
  %39 = call ptr @proto_tree_add_item(ptr noundef %36, i32 noundef %37, ptr noundef %38, i32 noundef 0, i32 noundef 1, i32 noundef -2147483648)
  %40 = load i8, ptr %12, align 1
  %41 = zext i8 %40 to i32
  switch i32 %41, label %65 [
    i32 1, label %42
  ]

42:                                               ; preds = %4
  call void @llvm.lifetime.start.p0(i64 8, ptr %14) #7
  %43 = load ptr, ptr %6, align 8
  %44 = call zeroext i8 @tvb_get_uint8(ptr noundef %43, i32 noundef 1)
  %45 = zext i8 %44 to i32
  %46 = call ptr @val_to_str_const(i32 noundef %45, ptr noundef @wisun_sec_sm_errors, ptr noundef @.str.528)
  store ptr %46, ptr %14, align 8
  %47 = load ptr, ptr %7, align 8
  %48 = getelementptr inbounds nuw %struct._packet_info, ptr %47, i32 0, i32 1
  %49 = load ptr, ptr %48, align 8
  %50 = load ptr, ptr %14, align 8
  call void (ptr, i32, ptr, ...) @col_append_fstr(ptr noundef %49, i32 noundef 25, ptr noundef @.str.529, ptr noundef %50)
  %51 = load ptr, ptr %10, align 8
  %52 = load ptr, ptr %14, align 8
  call void (ptr, ptr, ...) @proto_item_append_text(ptr noundef %51, ptr noundef @.str.529, ptr noundef %52)
  %53 = load ptr, ptr %11, align 8
  %54 = load i32, ptr @hf_wisun_sec_error_type, align 4
  %55 = load ptr, ptr %6, align 8
  %56 = call ptr @proto_tree_add_item(ptr noundef %53, i32 noundef %54, ptr noundef %55, i32 noundef 1, i32 noundef 1, i32 noundef -2147483648)
  %57 = load ptr, ptr %11, align 8
  %58 = load i32, ptr @hf_wisun_sec_error_nonce, align 4
  %59 = load ptr, ptr %6, align 8
  %60 = load ptr, ptr %6, align 8
  %61 = call i32 @tvb_reported_length_remaining(ptr noundef %60, i32 noundef 2)
  %62 = call ptr @proto_tree_add_item(ptr noundef %57, i32 noundef %58, ptr noundef %59, i32 noundef 2, i32 noundef %61, i32 noundef 0)
  %63 = load ptr, ptr %6, align 8
  %64 = call i32 @tvb_reported_length(ptr noundef %63)
  store i32 %64, ptr %5, align 4
  store i32 1, ptr %15, align 4
  call void @llvm.lifetime.end.p0(i64 8, ptr %14) #7
  br label %73

65:                                               ; preds = %4
  %66 = load ptr, ptr %6, align 8
  %67 = call ptr @tvb_new_subset_remaining(ptr noundef %66, i32 noundef 2)
  %68 = load ptr, ptr %7, align 8
  %69 = load ptr, ptr %11, align 8
  %70 = call i32 @call_data_dissector(ptr noundef %67, ptr noundef %68, ptr noundef %69)
  %71 = load ptr, ptr %6, align 8
  %72 = call i32 @tvb_reported_length(ptr noundef %71)
  store i32 %72, ptr %5, align 4
  store i32 1, ptr %15, align 4
  br label %73

73:                                               ; preds = %65, %42
  call void @llvm.lifetime.end.p0(i64 8, ptr %13) #7
  call void @llvm.lifetime.end.p0(i64 1, ptr %12) #7
  call void @llvm.lifetime.end.p0(i64 8, ptr %11) #7
  call void @llvm.lifetime.end.p0(i64 8, ptr %10) #7
  %74 = load i32, ptr %5, align 4
  ret i32 %74
}