; Function Attrs: null_pointer_is_valid sspstrong uwtable
define internal i32 @dissect_wisun_sec(ptr noundef %0, ptr noundef %1, ptr noundef %2, ptr readnone captures(none) %3) #0 {
  %5 = tail call zeroext i8 @tvb_get_uint8(ptr noundef %0, i32 noundef 0)
  %6 = zext i8 %5 to i32
  %7 = tail call ptr @val_to_str_const(i32 noundef %6, ptr noundef nonnull @wisun_sec_functions, ptr noundef nonnull @.str.526)
  %8 = load i32, ptr @proto_wisun_sec, align 4
  %9 = tail call ptr (ptr, i32, ptr, i32, i32, ptr, ...) @proto_tree_add_protocol_format(ptr noundef %2, i32 noundef %8, ptr noundef %0, i32 noundef 0, i32 noundef -1, ptr noundef nonnull @.str.527, ptr noundef %7)
  %10 = load i32, ptr @ett_wisun_sec, align 4
  %11 = tail call ptr @proto_item_add_subtree(ptr noundef %9, i32 noundef %10)
  %12 = getelementptr inbounds nuw i8, ptr %1, i64 8
  %13 = load ptr, ptr %12, align 8
  tail call void @col_set_str(ptr noundef %13, i32 noundef 35, ptr noundef nonnull @.str.379)
  %14 = load ptr, ptr %12, align 8
  tail call void @col_set_str(ptr noundef %14, i32 noundef 25, ptr noundef %7)
  %15 = load i32, ptr @hf_wisun_sec_function, align 4
  %16 = tail call ptr @proto_tree_add_item(ptr noundef %11, i32 noundef %15, ptr noundef %0, i32 noundef 0, i32 noundef 1, i32 noundef -2147483648)
  %cond = icmp eq i8 %5, 1
  br i1 %cond, label %17, label %27

17:                                               ; preds = %4
  %18 = tail call zeroext i8 @tvb_get_uint8(ptr noundef %0, i32 noundef 1)
  %19 = zext i8 %18 to i32
  %20 = tail call ptr @val_to_str_const(i32 noundef %19, ptr noundef nonnull @wisun_sec_sm_errors, ptr noundef nonnull @.str.528)
  %21 = load ptr, ptr %12, align 8
  tail call void (ptr, i32, ptr, ...) @col_append_fstr(ptr noundef %21, i32 noundef 25, ptr noundef nonnull @.str.529, ptr noundef %20)
  tail call void (ptr, ptr, ...) @proto_item_append_text(ptr noundef %9, ptr noundef nonnull @.str.529, ptr noundef %20)
  %22 = load i32, ptr @hf_wisun_sec_error_type, align 4
  %23 = tail call ptr @proto_tree_add_item(ptr noundef %11, i32 noundef %22, ptr noundef %0, i32 noundef 1, i32 noundef 1, i32 noundef -2147483648)
  %24 = load i32, ptr @hf_wisun_sec_error_nonce, align 4
  %25 = tail call i32 @tvb_reported_length_remaining(ptr noundef %0, i32 noundef 2)
  %26 = tail call ptr @proto_tree_add_item(ptr noundef %11, i32 noundef %24, ptr noundef %0, i32 noundef 2, i32 noundef %25, i32 noundef 0)
  br label %30

27:                                               ; preds = %4
  %28 = tail call ptr @tvb_new_subset_remaining(ptr noundef %0, i32 noundef 2)
  %29 = tail call i32 @call_data_dissector(ptr noundef %28, ptr noundef %1, ptr noundef %11)
  br label %30

30:                                               ; preds = %27, %17
  %31 = tail call i32 @tvb_reported_length(ptr noundef %0)
  ret i32 %31
}